; Function Attrs: mustprogress uwtable
define void @_ZN6casadi15KinsolInterface5ehfunEiPKcS2_PcPv(i32 %0, ptr nocapture readnone %1, ptr nocapture readnone %2, ptr noundef %3, ptr noundef %4) #3 align 2 personality ptr @__gxx_personality_v0 {
  %6 = invoke noundef ptr @_ZN6casadi15KinsolInterface6to_memEPv(ptr noundef %4)
          to label %7 unwind label %19

7:                                                ; preds = %5
  %8 = getelementptr inbounds i8, ptr %6, i64 136
  %9 = load ptr, ptr %8, align 8
  %10 = getelementptr inbounds i8, ptr %9, i64 1616
  %11 = load i8, ptr %10, align 8
  %12 = and i8 %11, 1
  %.not = icmp eq i8 %12, 0
  br i1 %.not, label %13, label %39

13:                                               ; preds = %7
  %14 = invoke noundef nonnull align 8 dereferenceable(8) ptr @_ZN6casadi4uerrEv()
          to label %15 unwind label %19

15:                                               ; preds = %13
  %16 = invoke noundef nonnull align 8 dereferenceable(8) ptr @_ZStlsISt11char_traitsIcEERSt13basic_ostreamIcT_ES5_PKc(ptr noundef nonnull align 8 dereferenceable(8) %14, ptr noundef %3)
          to label %17 unwind label %19

17:                                               ; preds = %15
  %18 = invoke noundef nonnull align 8 dereferenceable(8) ptr @_ZNSolsEPFRSoS_E(ptr noundef nonnull align 8 dereferenceable(8) %16, ptr noundef nonnull @_ZSt4endlIcSt11char_traitsIcEERSt13basic_ostreamIT_T0_ES6_)
          to label %39 unwind label %19

19:                                               ; preds = %17, %15, %13, %5
  %20 = landingpad { ptr, i32 }
          catch ptr @_ZTISt9exception
  %21 = extractvalue { ptr, i32 } %20, 1
  %22 = tail call i32 @llvm.eh.typeid.for(ptr nonnull @_ZTISt9exception) #19
  %23 = icmp eq i32 %21, %22
  br i1 %23, label %24, label %42

24:                                               ; preds = %19
  %25 = extractvalue { ptr, i32 } %20, 0
  %26 = tail call ptr @__cxa_begin_catch(ptr %25) #19
  %27 = invoke noundef nonnull align 8 dereferenceable(8) ptr @_ZN6casadi4uerrEv()
          to label %28 unwind label %40

28:                                               ; preds = %24
  %29 = invoke noundef nonnull align 8 dereferenceable(8) ptr @_ZStlsISt11char_traitsIcEERSt13basic_ostreamIcT_ES5_PKc(ptr noundef nonnull align 8 dereferenceable(8) %27, ptr noundef nonnull @.str.96)
          to label %30 unwind label %40

30:                                               ; preds = %28
  %31 = load ptr, ptr %26, align 8
  %32 = getelementptr inbounds i8, ptr %31, i64 16
  %33 = load ptr, ptr %32, align 8
  %34 = tail call noundef ptr %33(ptr noundef nonnull align 8 dereferenceable(8) %26) #19
  %35 = invoke noundef nonnull align 8 dereferenceable(8) ptr @_ZStlsISt11char_traitsIcEERSt13basic_ostreamIcT_ES5_PKc(ptr noundef nonnull align 8 dereferenceable(8) %29, ptr noundef %34)
          to label %36 unwind label %40

36:                                               ; preds = %30
  %37 = invoke noundef nonnull align 8 dereferenceable(8) ptr @_ZNSolsEPFRSoS_E(ptr noundef nonnull align 8 dereferenceable(8) %35, ptr noundef nonnull @_ZSt4endlIcSt11char_traitsIcEERSt13basic_ostreamIT_T0_ES6_)
          to label %38 unwind label %40

38:                                               ; preds = %36
  tail call void @__cxa_end_catch()
  br label %39

39:                                               ; preds = %7, %17, %38
  ret void

40:                                               ; preds = %36, %30, %28, %24
  %41 = landingpad { ptr, i32 }
          cleanup
  invoke void @__cxa_end_catch()
          to label %42 unwind label %43

42:                                               ; preds = %40, %19
  %.merged = phi { ptr, i32 } [ %41, %40 ], [ %20, %19 ]
  resume { ptr, i32 } %.merged

43:                                               ; preds = %40
  %44 = landingpad { ptr, i32 }
          catch ptr null
  %45 = extractvalue { ptr, i32 } %44, 0
  tail call void @__clang_call_terminate(ptr %45) #22
  unreachable
}